; Function Attrs: mustprogress uwtable
define dso_local void @_ZN3net21QuicSentPacketManager21OnConnectionMigrationEhNS_21PeerAddressChangeTypeE(ptr noundef nonnull align 8 dereferenceable(776) %this, i8 zeroext %0, i32 noundef %type) unnamed_addr #0 align 2 {
entry:
  %1 = add i32 %type, -1
  %or.cond = icmp ult i32 %1, 2
  br i1 %or.cond, label %return, label %if.end

if.end:                                           ; preds = %entry
  %consecutive_rto_count_ = getelementptr inbounds i8, ptr %this, i64 568
  %rtt_stats_ = getelementptr inbounds i8, ptr %this, i64 264
  tail call void @llvm.memset.p0.i64(ptr noundef nonnull align 8 dereferenceable(16) %consecutive_rto_count_, i8 0, i64 16, i1 false)
  tail call void @_ZN3net8RttStats21OnConnectionMigrationEv(ptr noundef nonnull align 8 dereferenceable(224) %rtt_stats_)
  %send_algorithm_ = getelementptr inbounds i8, ptr %this, i64 488
  %2 = load ptr, ptr %send_algorithm_, align 8
  %vtable = load ptr, ptr %2, align 8
  %vfn = getelementptr inbounds i8, ptr %vtable, i64 56
  %3 = load ptr, ptr %vfn, align 8
  tail call void %3(ptr noundef nonnull align 8 dereferenceable(8) %2)
  br label %return

return:                                           ; preds = %entry, %if.end
  ret void
}